(lp0
F0.5
aF0.525
aF0.55
aF0.575
aF0.6
aF0.625
aF0.65
aF0.675
aF0.7
aF0.725
aF0.75
aF0.775
aF0.8
aF0.825
aF0.8500000000000001
aF0.875
aF0.9
aF0.925
aF0.95
aF0.9750000000000001
aF1.0
aF1.025
aF1.05
aF1.0750000000000002
aF1.1
aF1.125
aF1.15
aF1.175
aF1.2000000000000002
aF1.225
aF1.25
aF1.275
aF1.3
aF1.3250000000000002
aF1.35
aF1.375
aF1.4
aF1.425
aF1.4500000000000002
aF1.475
aF1.5
aF1.5250000000000001
aF1.55
aF1.575
aF1.6
aF1.625
aF1.6500000000000001
aF1.675
aF1.7000000000000002
aF1.725
aF1.75
aF1.7750000000000001
aF1.8
aF1.8250000000000002
aF1.85
aF1.875
aF1.9000000000000001
aF1.925
aF1.9500000000000002
aF1.975
aF2.0
aF2.0250000000000004
aF2.05
aF2.075
aF2.1
aF2.125
aF2.1500000000000004
aF2.175
aF2.2
aF2.225
aF2.25
aF2.2750000000000004
aF2.3
aF2.325
aF2.35
aF2.375
aF2.4000000000000004
aF2.425
aF2.45
aF2.475
aF2.5
aF2.525
aF2.5500000000000003
aF2.575
aF2.6
aF2.625
aF2.65
aF2.6750000000000003
aF2.7
aF2.725
aF2.75
aF2.775
aF2.8000000000000003
aF2.825
aF2.85
aF2.875
aF2.9000000000000004
aF2.9250000000000003
aF2.95
aF2.975
aF3.0
a.