(lp0
(lp1
F0.5045094768757818
aF0.49496089238423885
aF0.49277635068356324
aa(lp2
F0.49818359555746783
aF0.49760029743518985
aF1.4912144942939831
aa(lp3
F0.4979291493496191
aF0.49619296825060083
aF2.4924379716214142
aa(lp4
F0.5017415083740131
aF0.5043694583678683
aF3.493973862654809
aa(lp5
F0.4911597051759988
aF0.506076706629742
aF4.495287749813879
aa(lp6
F0.49784577412249265
aF0.49786840948153704
aF5.494288733016512
aa(lp7
F0.5017861852905301
aF1.4944827288773384
aF0.49809076012129805
aa(lp8
F0.5045469680728939
aF1.4977838747285683
aF1.4962390505114322
aa(lp9
F0.5033529702354776
aF1.4978246744924366
aF2.4953406550040698
aa(lp10
F0.496209903545312
aF1.5035781205352698
aF3.4949395418008735
aa(lp11
F0.5095564372099887
aF1.5056589042614459
aF4.49365529198708
aa(lp12
F0.49739144361953774
aF1.4976867223205843
aF5.496281558268907
aa(lp13
F0.5002912560264721
aF2.494652820324593
aF0.5032325044816074
aa(lp14
F0.496391956831565
aF2.4978092091951414
aF1.5026550953186542
aa(lp15
F0.5028247540220773
aF2.4995062139328983
aF2.5024996938817123
aa(lp16
F0.4994920787294187
aF2.504584589308712
aF3.505078849009647
aa(lp17
F0.5001160918546449
aF2.504908834957348
aF4.507491709819317
aa(lp18
F0.5059483733206971
aF2.49918001656951
aF5.505590035145778
aa(lp19
F0.5015592554339581
aF3.493813199724168
aF0.5045238046894726
aa(lp20
F0.4972628403040685
aF3.496836601282692
aF1.5069082887087024
aa(lp21
F0.5030136902745141
aF3.4982633746413327
aF2.506338465278856
aa(lp22
F0.49934326070661644
aF3.504805929996465
aF3.505682719830624
aa(lp23
F0.5032755841220742
aF3.503758650083928
aF4.504655454244168
aa(lp24
F0.49477815729639957
aF3.499302021179641
aF5.5032482234470566
aa(lp25
F0.5003309294833486
aF4.494791462340317
aF0.49793762870941166
aa(lp26
F0.5041743351415996
aF4.497943946163917
aF1.4998383450562442
aa(lp27
F0.5011407143307345
aF4.497130691874434
aF2.4985835872444984
aa(lp28
F0.49249598095206515
aF4.504559580502467
aF3.498723502590811
aa(lp29
F0.5034824091278503
aF4.503245443167159
aF4.497806737859607
aa(lp30
F0.50861022576066
aF4.499100056440162
aF5.4949230484292615
aa(lp31
F0.4943561327064196
aF5.495194513152431
aF0.49372627563766625
aa(lp32
F0.4957517833106343
aF5.49923310423687
aF1.4941832849002765
aa(lp33
F0.5048920839836041
aF5.497114188896933
aF2.496661154193975
aa(lp34
F0.5001303021472974
aF5.505944364726553
aF3.496510932596195
aa(lp35
F0.5017700133051958
aF5.504744674421338
aF4.495499252496882
aa(lp36
F0.49814512447336395
aF5.499549379951604
aF5.49536640799455
aa(lp37
F1.5043366809983383
aF0.49988498319587177
aF0.5067994400878431
aa(lp38
F1.498644010455629
aF0.5047705012325834
aF1.5075206727932162
aa(lp39
F1.4966650242853257
aF0.4980267095571787
aF2.505659546262679
aa(lp40
F1.5010750317627242
aF0.49887093378796565
aF3.506383398099346
aa(lp41
F1.4916096978654048
aF0.49889935783459965
aF4.509252973652666
aa(lp42
F1.4979917557834421
aF0.5036943138303734
aF5.508113250487192
aa(lp43
F1.5004388111854663
aF1.4999877013183442
aF0.501392953072774
aa(lp44
F1.504224306188628
aF1.504652175711454
aF1.5008479878923031
aa(lp45
F1.5040258501664074
aF1.4997322409811313
aF2.5024740480739034
aa(lp46
F1.4965921448237773
aF1.4988227211128167
aF3.5027264363227375
aa(lp47
F1.508634240737058
aF1.5000049521480425
aF4.502535043235891
aa(lp48
F1.4974231631805912
aF1.5028221363940808
aF5.501187807933775
aa(lp49
F1.5023408537641438
aF2.4991691065964665
aF0.49894279834179933
aa(lp50
F1.4977980564582496
aF2.504622904722892
aF1.4988273984755018
aa(lp51
F1.5024723266153084
aF2.500456322431405
aF2.49880557328686
aa(lp52
F1.4997619333081382
aF2.4977626631444307
aF3.496472146888297
aa(lp53
F1.5005872097292254
aF2.5013328635988303
aF4.497780627650847
aa(lp54
F1.5056891503525263
aF2.5006583638116906
aF5.500393202970436
aa(lp55
F1.5011788728007522
aF3.499693170095356
aF0.49387356250398506
aa(lp56
F1.496665303472565
aF3.503441582177029
aF1.4911459280740331
aa(lp57
F1.5019029977421217
aF3.4999622560381787
aF2.4909975825825557
aa(lp58
F1.4999068233497086
aF3.4967682127664586
aF3.4928780891452487
aa(lp59
F1.5014807093162534
aF3.5015329367182764
aF4.491679977274435
aa(lp60
F1.494749205970869
aF3.5008961793948
aF5.492264391009588
aa(lp61
F1.5025187357960208
aF4.501427090309924
aF0.5028661295463509
aa(lp62
F1.5045001041066022
aF4.502276961965483
aF1.503159696102746
aa(lp63
F1.5004741546100426
aF4.499244929589924
aF2.504218747727151
aa(lp64
F1.4919047761002664
aF4.497396418295147
aF3.5056919997428246
aa(lp65
F1.5029019179655105
aF4.501398685985442
aF4.505832757155796
aa(lp66
F1.5090874758762278
aF4.501653615373257
aF5.504969927994709
aa(lp67
F1.4932419820808336
aF5.501565108968356
aF0.4957284074536154
aa(lp68
F1.4968254573097861
aF5.503167127317938
aF1.4965880734135382
aa(lp69
F1.5029239127005647
aF5.497283165757097
aF2.496626349034911
aa(lp70
F1.5008496418695323
aF5.498456651623316
aF3.496034132925351
aa(lp71
F1.5023809953667193
aF5.499890922930328
aF4.495648999450402
aa(lp72
F1.498177105039361
aF5.503214391387051
aF5.495502043013271
aa(lp73
F2.5034334966875056
aF0.4999966082339685
aF0.5029564914773913
aa(lp74
F2.498361570903026
aF0.4975030043302815
aF1.5017894345144558
aa(lp75
F2.4973714594103322
aF0.4975943259083749
aF2.499878632279382
aa(lp76
F2.5025491488861875
aF0.4991182480108469
aF3.4991408215511064
aa(lp77
F2.492252897783367
aF0.5034734858443561
aF4.499077783630701
aa(lp78
F2.4998345608359793
aF0.4948232025260175
aF5.50079637380793
aa(lp79
F2.5011426549561464
aF1.50124374209023
aF0.49848636529912205
aa(lp80
F2.5046494956565515
aF1.497785511989291
aF1.4989910475321422
aa(lp81
F2.503564871411101
aF1.4979234574395826
aF2.500991291820273
aa(lp82
F2.4968291819504085
aF1.4969941226013586
aF3.502004552601126
aa(lp83
F2.5082858796481435
aF1.5049950801528706
aF4.500307302061442
aa(lp84
F2.496721983295917
aF1.494408926627117
aF5.498810297761839
aa(lp85
F2.5009806499040983
aF2.4995806006859542
aF0.4973656173953432
aa(lp86
F2.4960565210551167
aF2.4993183162892656
aF1.4977786150188845
aa(lp87
F2.5028573437594908
aF2.4968932606227514
aF2.494337926268131
aa(lp88
F2.499240725888755
aF2.496829488844959
aF3.4937472478047646
aa(lp89
F2.5011228740900906
aF2.504152831743008
aF4.496157890310632
aa(lp90
F2.505909493520318
aF2.497118780670749
aF5.496332005729695
aa(lp91
F2.501836804780942
aF3.4981514344771663
aF0.5099346994445405
aa(lp92
F2.495323723724974
aF3.499515072582302
aF1.51222602370175
aa(lp93
F2.499507475071758
aF3.4978471982730786
aF2.5114060320388902
aa(lp94
F2.500860720285141
aF3.4988371607472493
aF3.510934967756209
aa(lp95
F2.5005267597467835
aF3.5023407231170656
aF4.511315262772848
aa(lp96
F2.4948126032130147
aF3.4975957430972056
aF5.5085372258551955
aa(lp97
F2.5032820320442903
aF4.49822541590421
aF0.5002647511303947
aa(lp98
F2.5054915610242503
aF4.498561880435247
aF1.5001000333607848
aa(lp99
F2.5001990857721332
aF4.4994235760728465
aF2.4993249144514293
aa(lp100
F2.492547742753905
aF4.499337462615511
aF3.497385413386003
aa(lp101
F2.503366214256446
aF4.503046669634831
aF4.497604038122083
aa(lp102
F2.5072425597308428
aF4.497857610898607
aF5.498746754061398
aa(lp103
F2.493323553168412
aF5.4981130477981015
aF0.500061031617131
aa(lp104
F2.4982500860750982
aF5.498541737164964
aF1.5002761001206302
aa(lp105
F2.5031373587881878
aF5.498734254181606
aF2.5026063151071334
aa(lp106
F2.5004474514535673
aF5.498651771943198
aF3.503564952804689
aa(lp107
F2.4991744013382284
aF5.503558008272774
aF4.502792366001755
aa(lp108
F2.4977125338786097
aF5.496752985065581
aF5.501255368036664
aa(lp109
F3.5039996796866055
aF0.49638641947082457
aF0.49955578034969955
aa(lp110
F3.5009080636566843
aF0.5037267790225552
aF1.4998599788253484
aa(lp111
F3.4989017661925255
aF0.4961556151956079
aF2.5012041022970033
aa(lp112
F3.503476710785769
aF0.4940819129748099
aF3.501931028576779
aa(lp113
F3.4920435239419803
aF0.5032559461391748
aF4.499992631904461
aa(lp114
F3.4984961761066993
aF0.4983071241821565
aF5.499242400301501
aa(lp115
F3.5001968310076763
aF1.4967856220445952
aF0.49978688359376433
aa(lp116
F3.5041045273439337
aF1.5035885264896955
aF1.5001144680983631
aa(lp117
F3.5038536920681915
aF1.4965025488842214
aF2.4988268809956815
aa(lp118
F3.496835830532556
aF1.4963029613355552
aF3.50119433381396
aa(lp119
F3.5072598619022113
aF1.5009303152476374
aF4.501537081439772
aa(lp120
F3.497098373528828
aF1.499219969692536
aF5.49802043216376
aa(lp121
F3.500259656714476
aF2.4980263964984872
aF0.49532800026998874
aa(lp122
F3.4945153468606405
aF2.50359108495531
aF1.4967381901017993
aa(lp123
F3.5023759010740334
aF2.4969736562734797
aF2.495877736369633
aa(lp124
F3.497411389790697
aF2.4964137515431637
aF3.49584278906977
aa(lp125
F3.5013487541207273
aF2.501086468836069
aF4.496563612902897
aa(lp126
F3.506240884673877
aF2.4991256761548657
aF5.495484934641028
aa(lp127
F3.5007238571453776
aF3.4979818568016947
aF0.5013516280508892
aa(lp128
F3.4976328535275387
aF3.504194651164597
aF1.5009209335956937
aa(lp129
F3.5010729843484496
aF3.4966601006992613
aF2.5006256168254533
aa(lp130
F3.500899287677993
aF3.495292784229746
aF3.5003383963576717
aa(lp131
F3.5003257489541673
aF3.5032643202458447
aF4.500144145935145
aa(lp132
F3.49666310960165
aF3.497900306491606
aF5.5003339690235915
aa(lp133
F3.5031606396718575
aF4.497801024748399
aF0.5032713900483252
aa(lp134
F3.5047615287335865
aF4.503582128949254
aF1.5024262882973465
aa(lp135
F3.4991275387669196
aF4.497211749970454
aF2.4994890746237006
aa(lp136
F3.494068462337516
aF4.494616392942349
aF3.500327706105213
aa(lp137
F3.5032792094488117
aF4.504078108021892
aF4.502664900291798
aa(lp138
F3.506284266236446
aF4.497103209925271
aF5.502927595894453
aa(lp139
F3.4914868556683682
aF5.498102932791299
aF0.5040938458628803
aa(lp140
F3.4988081675620437
aF5.503553211002659
aF1.5011085913355482
aa(lp141
F3.505083746849539
aF5.497688035637237
aF2.502521020220614
aa(lp142
F3.5000832033406706
aF5.4940372818689935
aF3.503526173749125
aa(lp143
F3.497042264424124
aF5.503595831352515
aF4.504874854872832
aa(lp144
F3.4998863244960057
aF5.4974840221166685
aF5.505735214760473
aa(lp145
F4.50583648561303
aF0.5013582259858926
aF0.49694128468412824
aa(lp146
F4.500890962245039
aF0.49988452236884356
aF1.4954747736750955
aa(lp147
F4.497809129782475
aF0.5021671101331472
aF2.494625016470286
aa(lp148
F4.504013809884246
aF0.4974796355813046
aF3.4955740303741223
aa(lp149
F4.490729127532105
aF0.4979041831323868
aF4.496917644947115
aa(lp150
F4.4970232301146655
aF0.5044513050620183
aF5.495932083013352
aa(lp151
F4.499495065608264
aF1.5014992734256167
aF0.5035917964019095
aa(lp152
F4.50353436212667
aF1.5000898956692426
aF1.5044582027938291
aa(lp153
F4.503095332511915
aF1.5001720185782725
aF2.5032479726230776
aa(lp154
F4.4963327438977885
aF1.4971265376299943
aF3.5022105584877132
aa(lp155
F4.507856966742576
aF1.4974069954886822
aF4.502879218736492
aa(lp156
F4.497653181598832
aF1.5040437080253597
aF5.503632173658781
aa(lp157
F4.500241570194994
aF2.501353457169801
aF0.5039066189979422
aa(lp158
F4.495140310517544
aF2.5006795054235953
aF1.5035545084171305
aa(lp159
F4.501553979092375
aF2.4980663434098767
aF2.5036299209432062
aa(lp160
F4.496923436543638
aF2.4981135808552817
aF3.503196983680882
aa(lp161
F4.501924698022847
aF2.4976191372612524
aF4.50443680898057
aa(lp162
F4.5050133446232445
aF2.5031117493259774
aF5.504586008191611
aa(lp163
F4.49967267966376
aF3.502347823316488
aF0.5109684602373598
aa(lp164
F4.500138977115467
aF3.5018662470530044
aF1.5101595614305054
aa(lp165
F4.503663399336621
aF3.498947749638579
aF2.507126708933498
aa(lp166
F4.5008979847056745
aF3.498425958471524
aF3.5063200817939704
aa(lp167
F4.5014547430616565
aF3.4987666578898287
aF4.506906335266543
aa(lp168
F4.498311482377704
aF3.501999911260884
aF5.50900020852015
aa(lp169
F4.502319643442553
aF4.503006755803733
aF0.4996292523012293
aa(lp170
F4.504335906903325
aF4.501382796057637
aF1.5007379725151802
aa(lp171
F4.497742428050113
aF4.500540405700849
aF2.502363994757454
aa(lp172
F4.492945033627789
aF4.498252988198124
aF3.5020858134939403
aa(lp173
F4.503948300767359
aF4.498074019775026
aF4.5019425651322065
aa(lp174
F4.508998197699704
aF4.503009677760539
aF5.500737972867622
aa(lp175
F4.491357178192106
aF5.501094084679467
aF0.5026093321092514
aa(lp176
F4.497476977923667
aF5.500476503899921
aF1.5005779093072498
aa(lp177
F4.505620469091794
aF5.501341385375853
aF2.4992056438274255
aa(lp178
F4.500626629299281
aF5.498536877123156
aF3.500416528821603
aa(lp179
F4.498287498667239
aF5.497137600342327
aF4.499287148118307
aa(lp180
F4.501723356670326
aF5.5046594032987475
aF5.501162772629534
aa(lp181
F5.505895093161727
aF0.49857640896673644
aF0.4992667643156712
aa(lp182
F5.497842058783034
aF0.5049139739094867
aF1.5001735908448393
aa(lp183
F5.498615119680789
aF0.5027391860301554
aF2.4968401054091482
aa(lp184
F5.503573772628326
aF0.5043825534853474
aF3.497304079444383
aa(lp185
F5.490259063660513
aF0.49564673335273723
aF4.499304362417021
aa(lp186
F5.498335909306174
aF0.5001541973576289
aF5.497936355519346
aa(lp187
F5.501391091538745
aF1.4988702414063273
aF0.5053762656259514
aa(lp188
F5.504524436001749
aF1.5038153094874487
aF1.5071196063200067
aa(lp189
F5.502327666809874
aF1.5015466952243794
aF2.509785791445691
aa(lp190
F5.496545318420667
aF1.5048431141872487
aF3.50711365118803
aa(lp191
F5.509505290893198
aF1.4968576833487408
aF4.505947433118846
aa(lp192
F5.4974158756548235
aF1.5007989701605164
aF5.506826459955812
aa(lp193
F5.499616232485098
aF2.498381818860143
aF0.4985650097038686
aa(lp194
F5.494932420233232
aF2.502407624471556
aF1.4995087645629572
aa(lp195
F5.502605748243473
aF2.5017203586465455
aF2.497935165714579
aa(lp196
F5.49764967259557
aF2.502387089109919
aF3.496186001922486
aa(lp197
F5.5014183917585
aF2.497356257421074
aF4.496336629958809
aa(lp198
F5.505059605760243
aF2.500915215119639
aF5.4969810675486945
aa(lp199
F5.500760520228815
aF3.498608961542901
aF0.4872305919357805
aa(lp200
F5.498438625108052
aF3.501528112357779
aF1.4875358305548014
aa(lp201
F5.50339799179522
aF3.5034683526696693
aF2.4885340554471482
aa(lp202
F5.500223153496952
aF3.5013944475394125
aF3.4896496166458464
aa(lp203
F5.502808120872413
aF3.4982531440732902
aF4.489160040691375
aa(lp204
F5.496630665043436
aF3.499392239887051
aF5.487396008020948
aa(lp205
F5.500251609321126
aF4.49856518755071
aF0.5012291353814289
aa(lp206
F5.504402624716341
aF4.501249767409723
aF1.5008070652639585
aa(lp207
F5.499140513379656
aF4.505302069888932
aF2.500985968460912
aa(lp208
F5.492514370490997
aF4.50145877203122
aF3.5029653289398053
aa(lp209
F5.5039528552117885
aF4.500500384130277
aF4.503661162748802
aa(lp210
F5.509254110519178
aF4.499393651364746
aF5.501567375115058
aa(lp211
F5.493989816840905
aF5.497978477814764
aF0.49661330156049405
aa(lp212
F5.496548263713027
aF5.503809709596068
aF1.4976964131508814
aa(lp213
F5.505590437930484
aF5.503886334667656
aF2.49753879798647
aa(lp214
F5.499513527167211
aF5.501012937407778
aF3.499373591001005
aa(lp215
F5.500043884644115
aF5.498766138117446
aF4.500312530152573
aa(lp216
F5.499894114711248
aF5.500535319167129
aF5.49643364944092
aa.