(lp0
(lp1
F0.5080875139928681
aF0.4922184462074726
aF0.48989079448242995
aa(lp2
F0.498252177612766
aF0.4970675378867732
aF1.4904382068074855
aa(lp3
F0.49624025256279297
aF0.496304301833489
aF2.490292068408211
aa(lp4
F0.5054679939716575
aF0.5066265430308305
aF3.490641152024105
aa(lp5
F0.4859746709439632
aF0.5074639198011568
aF4.490156294280285
aa(lp6
F0.49823807806921944
aF0.49753946668976623
aF5.490373570675229
aa(lp7
F0.50036335440021
aF1.4925231890863058
aF0.49332437752869585
aa(lp8
F0.5064535711182995
aF1.496512743559272
aF1.493851330274589
aa(lp9
F0.5047063513823423
aF1.4963297413137118
aF2.493256881497865
aa(lp10
F0.4935320768186129
aF1.5063552175007382
aF3.492462198139092
aa(lp11
F0.5139103547667442
aF1.5075133763396935
aF4.4928824942595185
aa(lp12
F0.4947230867421248
aF1.4977652302373214
aF5.492853976099333
aa(lp13
F0.5006841104056784
aF2.4920903142839643
aF0.5064628502372457
aa(lp14
F0.49329691208922727
aF2.4964186462132636
aF1.5059556828293794
aa(lp15
F0.5034028706226944
aF2.496106093973473
aF2.5068351867486425
aa(lp16
F0.49759289132822887
aF2.5064323458542255
aF3.5074025536468656
aa(lp17
F0.5000206220897336
aF2.506896453231809
aF4.507261120260318
aa(lp18
F0.5088761640893851
aF2.4980575882969056
aF5.506991156450008
aa(lp19
F0.5018324398746565
aF3.492682588720154
aF0.5095189075641106
aa(lp20
F0.495855541524707
aF3.4971162690849034
aF1.5093740310153554
aa(lp21
F0.503240868042258
aF3.49616387166437
aF2.5096702879030803
aa(lp22
F0.500598847483017
aF3.5069596592477783
aF3.5090102933352116
aa(lp23
F0.5025913615775173
aF3.506587629112859
aF4.508821336278989
aa(lp24
F0.4922458587467005
aF3.4985938902886944
aF5.509392310529375
aa(lp25
F0.5020635433892326
aF4.492170260281784
aF0.49661313402135604
aa(lp26
F0.5074537137296321
aF4.4972421369667765
aF1.4966707379908106
aa(lp27
F0.4990393495215929
aF4.495890104018525
aF2.49658576856186
aa(lp28
F0.4887211998524246
aF4.507469423270333
aF3.4959021150019085
aa(lp29
F0.5045369636032793
aF4.506524466766037
aF4.495396064297371
aa(lp30
F0.512861130484453
aF4.498471504097815
aF5.4970526565110935
aa(lp31
F0.4895826826378392
aF5.492304850325185
aF0.49470313039417435
aa(lp32
F0.4958678667733903
aF5.496663424224804
aF1.494598879430328
aa(lp33
F0.5071057174256395
aF5.495515112283034
aF2.494004774012144
aa(lp34
F0.5003189614683566
aF5.506519787338357
aF3.4939142661685905
aa(lp35
F0.5006065557281528
aF5.506816571143074
aF4.494254794785933
aa(lp36
F0.498592105138541
aF5.497473770489026
aF5.4942500574130495
aa(lp37
F1.5072978567853716
aF0.5003869057408952
aF0.5118672531610913
aa(lp38
F1.4981864827540357
aF0.5062423355273168
aF1.5111374369222523
aa(lp39
F1.4962845893459968
aF0.4986287553525779
aF2.511823620042515
aa(lp40
F1.5052470538332272
aF0.4970977756075822
aF3.5117960639845385
aa(lp41
F1.486255660622503
aF0.49949545287167496
aF4.511164653052171
aa(lp42
F1.498397634414099
aF0.5041205717221917
aF5.511591784610407
aa(lp43
F1.5007764919455604
aF1.4996951969130472
aF0.5020053679773941
aa(lp44
F1.5064133900306333
aF1.5065614465549246
aF1.502925056801425
aa(lp45
F1.504830007975087
aF1.4988728580348654
aF2.5026385997567537
aa(lp46
F1.4934354461409718
aF1.4969988762209696
aF3.503267663245468
aa(lp47
F1.5139796073442897
aF1.4994058664971852
aF4.502543974224196
aa(lp48
F1.4945153715056299
aF1.5038516787814713
aF5.502692498381651
aa(lp49
F1.50004058271054
aF2.5004526590182143
aF0.4986140059793853
aa(lp50
F1.4930470837432197
aF2.5060513318592887
aF1.4987067738367092
aa(lp51
F1.5035886806391252
aF2.4989954290828273
aF2.4982604175617804
aa(lp52
F1.497817058806468
aF2.49664781077553
aF3.498517940024867
aa(lp53
F1.4998966269075658
aF2.5001411290673805
aF4.498015085252956
aa(lp54
F1.5090391805276744
aF2.503876842404683
aF5.497679417306157
aa(lp55
F1.5022855731246798
aF3.500872193444778
aF0.48645541972121825
aa(lp56
F1.495521271927534
aF3.5059840267158506
aF1.4868447491891728
aa(lp57
F1.5029105134620886
aF3.499335857807961
aF2.4864391611169925
aa(lp58
F1.5008660529170508
aF3.4965915403392427
aF3.486098986222113
aa(lp59
F1.502939034060009
aF3.500930511996071
aF4.486914589448447
aa(lp60
F1.4921608555620272
aF3.5031733470918445
aF5.48719739654166
aa(lp61
F1.5021134759503205
aF4.500933602386066
aF0.5079439772202421
aa(lp62
F1.5075334246243481
aF4.5058798924256624
aF1.5074955859614494
aa(lp63
F1.4998010371381714
aF4.498623204964584
aF2.5079451071173597
aa(lp64
F1.4887885582214926
aF4.4964236131920465
aF3.508001045630469
aa(lp65
F1.5048290005432616
aF4.500346627576487
aF4.508369172433381
aa(lp66
F1.5122731634187532
aF4.50329779437879
aF5.507935413263765
aa(lp67
F1.48986909475763
aF5.500544765886765
aF0.49380173944457306
aa(lp68
F1.4959633515514004
aF5.506144499218209
aF1.4937949522822798
aa(lp69
F1.5073019560182452
aF5.499034325205516
aF2.4933884337952534
aa(lp70
F1.5005615082125348
aF5.496788126676267
aF3.4928907085674528
aa(lp71
F1.5001218101734466
aF5.4998994564390005
aF4.492678781339263
aa(lp72
F1.4981517634301482
aF5.503461564261979
aF5.493083685814702
aa(lp73
F2.5075924909555134
aF0.49986861688804773
aF0.5004816503160308
aa(lp74
F2.498749978524358
aF0.4973050817349649
aF1.5005837731219216
aa(lp75
F2.496212390065715
aF0.4981950253455212
aF2.5000778092651506
aa(lp76
F2.505028537045065
aF0.497506489226583
aF3.49945663808437
aa(lp77
F2.4863918361342634
aF0.5063300814860164
aF4.499674562878637
aa(lp78
F2.4979162660895313
aF0.49380275709343263
aF5.500285827217943
aa(lp79
F2.500222956781293
aF1.4998632306778317
aF0.4994976710123995
aa(lp80
F2.5062292521077514
aF1.4972307441335195
aF1.4999027404499623
aa(lp81
F2.505219923834393
aF1.4975741796583786
aF2.5004031806123344
aa(lp82
F2.493693318370563
aF1.4978747482475783
aF3.5003830139590733
aa(lp83
F2.5135677814823842
aF1.5060037063493203
aF4.500255966650301
aa(lp84
F2.494653611851801
aF1.494047618671472
aF5.4998661437511265
aa(lp85
F2.5006973287449674
aF2.499693906360525
aF0.49393880646664606
aa(lp86
F2.4932849431398996
aF2.497466528812568
aF1.4930376276778607
aa(lp87
F2.5037205039038595
aF2.4979139063035096
aF2.4934377598963406
aa(lp88
F2.4973357248636563
aF2.4979079731825493
aF3.4934209389181228
aa(lp89
F2.5003371346571144
aF2.5057924112918304
aF4.493121453282456
aa(lp90
F2.509044763505444
aF2.494011140378539
aF5.493953341226753
aa(lp91
F2.5016479513990375
aF3.499205867865679
aF0.5164220926043429
aa(lp92
F2.4961162411742173
aF3.4975324258033305
aF1.516477702330957
aa(lp93
F2.5031995975329493
aF3.497422912307875
aF2.5171257353054663
aa(lp94
F2.501048898725808
aF3.497930342265832
aF3.517673720982543
aa(lp95
F2.5020838321279193
aF3.505408598996201
aF4.516714255202557
aa(lp96
F2.492710247681445
aF3.49504403191864
aF5.517347990136338
aa(lp97
F2.5026132981978244
aF4.498747785165073
aF0.4968684640538686
aa(lp98
F2.507079852011519
aF4.497702188001166
aF1.4971769971685063
aa(lp99
F2.4993455518655514
aF4.497397634222808
aF2.4965336185165445
aa(lp100
F2.488919430492157
aF4.497856314234875
aF3.496675561848687
aa(lp101
F2.5050052957096813
aF4.504845478405286
aF4.496167650232892
aa(lp102
F2.5122699214147413
aF4.4946665304547935
aF5.4968202214582735
aa(lp103
F2.4889424406473766
aF5.499469126499939
aF0.5020879338194674
aa(lp104
F2.4961475473807133
aF5.497157240565358
aF1.502644018707572
aa(lp105
F2.507094212713209
aF5.497781490086597
aF2.5028600741616946
aa(lp106
F2.5006295409610275
aF5.4983039256561295
aF3.5033018011292407
aa(lp107
F2.5001851653806897
aF5.505374996147674
aF4.503032345331863
aa(lp108
F2.499132322391711
aF5.4943306552322895
aF5.502466520688523
aa(lp109
F3.5078066054427315
aF0.49593113988781834
aF0.4999242371202328
aa(lp110
F3.498187767700538
aF0.5064608053372512
aF1.5006945428955694
aa(lp111
F3.4953195203350647
aF0.49567794618832384
aF2.5010242882589595
aa(lp112
F3.5052871933505716
aF0.4932882041010626
aF3.500564538188612
aa(lp113
F3.486556243223811
aF0.5044596307262651
aF4.500322237951704
aa(lp114
F3.497980124936083
aF0.4974529717771832
aF5.500000533304508
aa(lp115
F3.500547334666449
aF1.4955820935768112
aF0.4997593242994873
aa(lp116
F3.5064396050901885
aF1.506441850668955
aF1.4997468715761468
aa(lp117
F3.504967540522824
aF1.4954137906801674
aF2.5000126460237304
aa(lp118
F3.4937772969786987
aF1.4933004624864654
aF3.499710176942664
aa(lp119
F3.513884567761802
aF1.504221703450515
aF4.4993793661967905
aa(lp120
F3.4948131330207635
aF1.4977301306350168
aF5.500756714402929
aa(lp121
F3.5007897660632725
aF2.4957996208713555
aF0.49389079636290456
aa(lp122
F3.493480510071494
aF2.506203315411968
aF1.4935716314761391
aa(lp123
F3.5039234808079565
aF2.495581318085178
aF2.494233439768133
aa(lp124
F3.497577915729318
aF2.4934281229320567
aF3.494202593978226
aa(lp125
F3.500916319527079
aF2.5040243581987403
aF4.493680411656387
aa(lp126
F3.508692025622271
aF2.4974425111390524
aF5.493908808478658
aa(lp127
F3.5015485086433533
aF3.4961129214659845
aF0.4989481854322948
aa(lp128
F3.4962757165216685
aF3.5057565189239166
aF1.499277793515045
aa(lp129
F3.502989580837019
aF3.495651218456738
aF2.499596220089092
aa(lp130
F3.5013344775761492
aF3.492966005911248
aF3.499870882713194
aa(lp131
F3.5020768805464213
aF3.5043654638453248
aF4.499522149203122
aa(lp132
F3.492987360129031
aF3.497133065438087
aF5.4995502556441735
aa(lp133
F3.5029097901260475
aF4.496470794041147
aF0.5025266270854385
aa(lp134
F3.507107478438515
aF4.50610618530743
aF1.502130674573405
aa(lp135
F3.4987476101189254
aF4.495508685295979
aF2.502590326818499
aa(lp136
F3.48864567029295
aF4.492519715366717
aF3.50238057818719
aa(lp137
F3.505640183858726
aF4.5048244191189655
aF4.5021882823278485
aa(lp138
F3.5122467990006814
aF4.496867908525174
aF5.502598329824527
aa(lp139
F3.4889241592713396
aF5.495830671370889
aF0.5047630359324762
aa(lp140
F3.4956923076623427
aF5.506063003151481
aF1.5055820740308477
aa(lp141
F3.506994286184877
aF5.495136424709844
aF2.5048017225028194
aa(lp142
F3.500626245089291
aF5.492487641321928
aF3.505212705682698
aa(lp143
F3.5000012915387955
aF5.505286327718916
aF4.5050698695420675
aa(lp144
F3.499568482997511
aF5.496914859205423
aF5.505093197261563
aa(lp145
F4.507932575904329
aF0.5023655734347566
aF0.49304264074177734
aa(lp146
F4.4980312210419795
aF0.499977860583795
aF1.493636227615922
aa(lp147
F4.495969296027213
aF0.5006338723217748
aF2.493633860704047
aa(lp148
F4.505432390943168
aF0.49709785888820684
aF3.493902353315746
aa(lp149
F4.486469813805021
aF0.4963711967266189
aF4.493337124290821
aa(lp150
F4.49800771768345
aF0.5058351252540223
aF5.494089272520508
aa(lp151
F4.5007250556196565
aF1.5025713876928477
aF0.5048478854121332
aa(lp152
F4.506778826670047
aF1.5001049740932326
aF1.5043695336448017
aa(lp153
F4.505083648465167
aF1.500762088495614
aF2.5044860990551516
aa(lp154
F4.4940030832121325
aF1.4969900110256444
aF3.5043537789684605
aa(lp155
F4.513872987065361
aF1.4967045155007463
aF4.5042212436278675
aa(lp156
F4.494960301632866
aF1.5054806435810038
aF5.5043102399181745
aa(lp157
F4.500801413246692
aF2.502786218978843
aF0.5049417012310923
aa(lp158
F4.492918744686293
aF2.50075806147811
aF1.5048929898297243
aa(lp159
F4.504046825279855
aF2.5005133281081124
aF2.505157560452828
aa(lp160
F4.497299990708163
aF2.497239260784968
aF3.506022208396638
aa(lp161
F4.500811761013351
aF2.496848687843295
aF4.505686768760042
aa(lp162
F4.508818092874209
aF2.505241656543866
aF5.505424983425336
aa(lp163
F4.50159806949476
aF3.502927520831843
aF0.5131994224724608
aa(lp164
F4.49612114797459
aF3.5006163670306663
aF1.512925977229947
aa(lp165
F4.503095523485948
aF3.5000363742117924
aF2.5131043061903653
aa(lp166
F4.5011125057846435
aF3.497623202011894
aF3.5126637486823147
aa(lp167
F4.502098319521734
aF3.496482253393317
aF4.512987645232093
aa(lp168
F4.4928221490445885
aF3.505509536958348
aF5.51317455283063
aa(lp169
F4.502363933934982
aF4.502441039630252
aF0.5002172319901397
aa(lp170
F4.507007757004969
aF4.500577208944108
aF1.5006195268769682
aa(lp171
F4.498744156993889
aF4.499976744425695
aF2.501126756115626
aa(lp172
F4.489160173192966
aF4.49777579856115
aF3.5015157088971955
aa(lp173
F4.505216972719755
aF4.496235578912605
aF4.5007541884917455
aa(lp174
F4.51148468179369
aF4.505544137802743
aF5.500357881441701
aa(lp175
F4.488890804181761
aF5.502966420890371
aF0.5011312119985358
aa(lp176
F4.495765483646814
aF5.500125898621462
aF1.5014419950529536
aa(lp177
F4.507450752002181
aF5.500705272691641
aF2.5012934724438547
aa(lp178
F4.49992672319612
aF5.497306599978574
aF3.500042594079726
aa(lp179
F4.49976814378847
aF5.4964473918335965
aF4.500752687673539
aa(lp180
F4.499281292150728
aF5.505607757415585
aF5.5008781898740455
aa(lp181
F5.507864973497594
aF0.4973831813514821
aF0.4987357870192252
aa(lp182
F5.498610445991139
aF0.5047431080671901
aF1.49816699040933
aa(lp183
F5.495644478088566
aF0.5038931855319106
aF2.4985859371537553
aa(lp184
F5.505337319324186
aF0.503823947509186
aF3.4979722777523423
aa(lp185
F5.4862499350233405
aF0.4965241368639271
aF4.497255980539183
aa(lp186
F5.49754401007751
aF0.5006983392658727
aF5.498634354325097
aa(lp187
F5.500508178880012
aF1.4975533939731929
aF0.5105954083845183
aa(lp188
F5.506684357973958
aF1.5047515055735428
aF1.5106653242647161
aa(lp189
F5.504988617879575
aF1.5039922097461287
aF2.5106461767545074
aa(lp190
F5.493542768042399
aF1.5042093982515536
aF3.511828456523671
aa(lp191
F5.513992605889433
aF1.4953727107275165
aF4.511359645722088
aa(lp192
F5.494916023589145
aF1.5006933843808308
aF5.510279175600365
aa(lp193
F5.500748546395468
aF2.4980055413844617
aF0.49648423243922424
aa(lp194
F5.49344560315385
aF2.50456673205469
aF1.4963426669514244
aa(lp195
F5.503590713405348
aF2.5042321034002635
aF2.496079981111129
aa(lp196
F5.497657677175439
aF2.5039563954485535
aF3.495918131874552
aa(lp197
F5.500346427842383
aF2.4961861693708527
aF4.495517991979816
aa(lp198
F5.508851297180265
aF2.500570019350375
aF5.496092403947295
aa(lp199
F5.50154657445357
aF3.498106726593793
aF0.4810899234335308
aa(lp200
F5.4962746135516705
aF3.5041031654175385
aF1.4810612502418985
aa(lp201
F5.503406840852498
aF3.504888162994882
aF2.4814352678001854
aa(lp202
F5.500628891295943
aF3.5033427430668955
aF3.481706401464139
aa(lp203
F5.502559752689309
aF3.497009584154264
aF4.481762509133002
aa(lp204
F5.492411195655541
aF3.500655388106755
aF5.481792719131935
aa(lp205
F5.502154771911831
aF4.49774716749833
aF0.5042859285439968
aa(lp206
F5.507204460056342
aF4.504309887413169
aF1.5040827318543855
aa(lp207
F5.498841407315714
aF4.504496330405829
aF2.503771132820946
aa(lp208
F5.488934266178793
aF4.502477198875974
aF3.503668273769007
aa(lp209
F5.5049642703741455
aF4.49659851243634
aF4.503564725645458
aa(lp210
F5.512220396084639
aF4.500103651843859
aF5.504953224209581
aa(lp211
F5.489007595873409
aF5.497696343252541
aF0.4971407531359068
aa(lp212
F5.4953559787210295
aF5.504258484119962
aF1.4973475312591342
aa(lp213
F5.5074999783499425
aF5.504826424072081
aF2.497572363834694
aa(lp214
F5.500423178823676
aF5.503652128421086
aF3.497410887775482
aa(lp215
F5.5002794314392
aF5.496436983072521
aF4.496550341636296
aa(lp216
F5.498945306216452
aF5.499860675135202
aF5.497889314751935
aa.