(lp0
(lp1
F0.5133366262022018
aF0.48909036988802507
aF0.4857605858122231
aa(lp2
F0.49728537825023655
aF0.4951263133626907
aF1.4859931306483323
aa(lp3
F0.4923105551724748
aF0.49334922843749696
aF2.4861915648770996
aa(lp4
F0.5112772205748478
aF0.5096349453701815
aF3.4858446946342494
aa(lp5
F0.47762176544155316
aF0.5108055431702709
aF4.485410001999694
aa(lp6
F0.4988076711050611
aF0.4963533237072455
aF5.4853333562803
aa(lp7
F0.4994407113383917
aF1.4893113523328605
aF0.48829006106932105
aa(lp8
F0.5100376482229575
aF1.4952808204679957
aF1.4884537943985567
aa(lp9
F0.5073788829269402
aF1.4933248162853965
aF2.488729251889431
aa(lp10
F0.48767733632315097
aF1.5095957469921368
aF3.488713588350118
aa(lp11
F0.5233964957952643
aF1.5102955261258675
aF4.488291994105857
aa(lp12
F0.4893954955604001
aF1.496688309866179
aF5.488057269615082
aa(lp13
F0.5002128219185391
aF2.4893724824522416
aF0.5103518041719928
aa(lp14
F0.4888512788030285
aF2.4952425378391294
aF1.5106999409324315
aa(lp15
F0.5054774940259702
aF2.4930012378565727
aF2.510711943802253
aa(lp16
F0.49644385725304724
aF2.5097213320393923
aF3.51049500000098
aa(lp17
F0.49761040512484334
aF2.5101778617319015
aF4.510437323698482
aa(lp18
F0.5148999509971137
aF2.4967237180148825
aF5.510220328885347
aa(lp19
F0.5036760547382758
aF3.4893475675208308
aF0.5174531823881435
aa(lp20
F0.4931462708804639
aF3.4955511249714006
aF1.5173011193502548
aa(lp21
F0.504491806588534
aF3.4929427825544903
aF2.5170094597750565
aa(lp22
F0.5021943742049793
aF3.510051660208668
aF3.51708507655995
aa(lp23
F0.5036922162612308
aF3.5103229265438585
aF4.517447899379139
aa(lp24
F0.48568248179360296
aF3.4967897835685093
aF5.517472418879133
aa(lp25
F0.5023806903888807
aF4.489254114538703
aF0.4928506225711651
aa(lp26
F0.5119733346781236
aF4.495340176083861
aF1.4926014829320462
aa(lp27
F0.4977463465582481
aF4.49295455345804
aF2.492270049617912
aa(lp28
F0.4830454497471662
aF4.509782104250917
aF3.492307800458805
aa(lp29
F0.5069438620292918
aF4.5103056082105395
aF4.492645134924761
aa(lp30
F0.5184532409213717
aF4.496291987207196
aF5.4927718302876
aa(lp31
F0.4832746560031913
aF5.48925071855692
aF0.494559384883019
aa(lp32
F0.4936643735129574
aF5.495302945643662
aF1.4943988136542157
aa(lp33
F0.5120455437572857
aF5.493361030153587
aF2.4939894789739627
aa(lp34
F0.5003885266503988
aF5.509781993448941
aF3.4937476019146487
aa(lp35
F0.5010400929234582
aF5.510680969811801
aF4.494025881192646
aa(lp36
F0.49827041190086213
aF5.496300223830464
aF5.494465192169456
aa(lp37
F1.5131619274857437
aF0.4999515071264894
aF0.518729723354621
aa(lp38
F1.4969476184546933
aF0.5099491105346959
aF1.5191119377762776
aa(lp39
F1.492133871938904
aF0.4987179119892099
aF2.5191599893213192
aa(lp40
F1.5108875416258516
aF0.49448891595586036
aF3.519089820136301
aa(lp41
F1.4771425330603971
aF0.4985361928484038
aF4.5186887136377
aa(lp42
F1.4983933787527237
aF0.5061333072403127
aF5.518549534437008
aa(lp43
F1.499409869170533
aF1.5003362224044752
aF0.5037053719494067
aa(lp44
F1.5098987523113097
aF1.509929655785477
aF1.5036583611029815
aa(lp45
F1.5072869841248744
aF1.4985761839170344
aF2.503823547928176
aa(lp46
F1.4875993557214826
aF1.4945614806030643
aF3.5037963417920643
aa(lp47
F1.5234711989664849
aF1.4980351114114618
aF4.503641566363036
aa(lp48
F1.489417183030186
aF1.5066833245839182
aF5.503408870115544
aa(lp49
F1.5000518687962547
aF2.500790865678126
aF0.4984809797381712
aa(lp50
F1.4888177643173741
aF2.5100068176140344
aF1.498862923601914
aa(lp51
F1.5054949942406708
aF2.498711642050013
aF2.49903088557569
aa(lp52
F1.4961911649504487
aF2.4948449214991766
aF3.498878968145965
aa(lp53
F1.497663076507337
aF2.498356101407074
aF4.498680387763845
aa(lp54
F1.514849467561448
aF2.5068244441787577
aF5.498513448385343
aa(lp55
F1.5037228871635244
aF3.5010206809275375
aF0.4763336399237534
aa(lp56
F1.4936674753256345
aF3.5102227753721427
aF1.4762104619635978
aa(lp57
F1.5050279997073417
aF3.4989138681362872
aF2.476156349696619
aa(lp58
F1.5023623902025802
aF3.4949315132269594
aF3.476283482975229
aa(lp59
F1.5040127796901366
aF3.498766896254789
aF4.476311133064144
aa(lp60
F1.4861466075112435
aF3.506682629262245
aF5.476276554468201
aa(lp61
F1.5021258030421922
aF4.500711276342446
aF0.5152563230119188
aa(lp62
F1.5117365137737226
aF4.510025005775521
aF1.515334849566338
aa(lp63
F1.4976737482614157
aF4.499006712568442
aF2.5151534112147855
aa(lp64
F1.4827611646699723
aF4.494523619202976
aF3.5151476572587543
aa(lp65
F1.5069977145886744
aF4.498753138294858
aF4.5149573821491416
aa(lp66
F1.51872986245968
aF4.505923997155959
aF5.5151871031808914
aa(lp67
F1.4833216003526741
aF5.500500846686323
aF0.48809409733280257
aa(lp68
F1.4936244727396712
aF5.510070986287215
aF1.4880825383618559
aa(lp69
F1.5121140619980318
aF5.499054172017253
aF2.487740253198099
aa(lp70
F1.5004307229300637
aF5.494543482731346
aF3.48756169350532
aa(lp71
F1.501165798080005
aF5.498832762829297
aF4.487698290804092
aa(lp72
F1.498623337893681
aF5.505974588341532
aF5.487990551418544
aa(lp73
F2.513229659018902
aF0.5005764462587572
aF0.498206253124752
aa(lp74
F2.496569181180289
aF0.49490285029419884
aF1.498201101810837
aa(lp75
F2.491963531964429
aF0.4978974915372353
aF2.4984069819465726
aa(lp76
F2.51070938569103
aF0.49765701191145456
aF3.4985900156623027
aa(lp77
F2.4772291412059393
aF0.5092553302701215
aF4.498288946600723
aa(lp78
F2.4982605149390684
aF0.490714270799113
aF5.498136403925741
aa(lp79
F2.499751571704332
aF1.5007432988899043
aF0.5006074575333469
aa(lp80
F2.5099938533674466
aF1.4950198337840503
aF1.5006352951562636
aa(lp81
F2.507391457731922
aF1.498202256745361
aF2.5006403775873474
aa(lp82
F2.487776794702427
aF1.497799191913664
aF3.500781387339573
aa(lp83
F2.523720441383496
aF1.5089260365278119
aF4.500563034355774
aa(lp84
F2.489507389939203
aF1.490898344947507
aF5.500333856649211
aa(lp85
F2.5001451618159773
aF2.500944916455467
aF0.4887732664922296
aa(lp86
F2.4889122876366963
aF2.495075230280594
aF1.4889963574353324
aa(lp87
F2.5057245837989766
aF2.4981881059711606
aF2.489022476435033
aa(lp88
F2.4963522506753697
aF2.4981324201542026
aF3.4892395314892632
aa(lp89
F2.497845578026298
aF2.5090184594638205
aF4.4894051408278735
aa(lp90
F2.514666945540251
aF2.4910720087260967
aF5.488965761537927
aa(lp91
F2.503324198825219
aF3.5006007958527343
aF0.5279299635705066
aa(lp92
F2.4932942247928693
aF3.4949002263543054
aF1.5278251423812814
aa(lp93
F2.5046751937796046
aF3.4976289621132715
aF2.527801187285979
aa(lp94
F2.502037793970382
aF3.497803022597476
aF3.5281443959308976
aa(lp95
F2.50369018612728
aF3.508645743970778
aF4.5285065534282305
aa(lp96
F2.4857279209182686
aF3.490563232383219
aF5.528127128637559
aa(lp97
F2.502023732064109
aF4.500570151355834
aF0.4912995630902673
aa(lp98
F2.511453480857374
aF4.494642653600063
aF1.4913296626147037
aa(lp99
F2.497792380600744
aF4.497327941481306
aF2.491473067377221
aa(lp100
F2.4825418426465653
aF4.497348525190228
aF3.4915427140882493
aa(lp101
F2.5072126631367873
aF4.50852085940635
aF4.491499751859549
aa(lp102
F2.518506128449281
aF4.490233938000463
aF5.4913610428808095
aa(lp103
F2.483423124315669
aF5.50071011201211
aF0.5048624136580482
aa(lp104
F2.4932785271901174
aF5.494802471035653
aF1.5048623283062001
aa(lp105
F2.5120240649371435
aF5.497609453059646
aF2.504787110760557
aa(lp106
F2.500388075991481
aF5.497293061002109
aF3.504757012088727
aa(lp107
F2.501295882006548
aF5.508976290471365
aF4.50479094167682
aa(lp108
F2.498551461178368
aF5.4904557161507155
aF5.504837424354952
aa(lp109
F3.5133443185058555
aF0.4929373181093304
aF0.5009447230929179
aa(lp110
F3.496504052570054
aF0.5108944324048879
aF1.50089704181587
aa(lp111
F3.4918560058707153
aF0.4932515174404686
aF2.500891298398206
aa(lp112
F3.510573773466174
aF0.4900994430367915
aF3.5010253976608126
aa(lp113
F3.4775624744652607
aF0.5080753074084007
aF4.500558464661739
aa(lp114
F3.498283500570807
aF0.49589888126554593
aF5.500660740893623
aa(lp115
F3.499827517464959
aF1.4929654832931443
aF0.5002973008258689
aa(lp116
F3.51018763344374
aF1.5108594207685744
aF1.500119968692859
aa(lp117
F3.507624592460782
aF1.4934247827487823
aF2.4997822063515454
aa(lp118
F3.4879556170934745
aF1.490015645678177
aF3.499894312593616
aa(lp119
F3.5238116101239227
aF1.5074537818054807
aF4.499841415867125
aa(lp120
F3.4896981732439483
aF1.4960640035558403
aF5.49977608596458
aa(lp121
F3.5005725122413462
aF2.493020058110382
aF0.4911533394452514
aa(lp122
F3.4891711930119174
aF2.510548838498485
aF1.4912683747717732
aa(lp123
F3.505983251040934
aF2.4935025106777493
aF2.49106702282577
aa(lp124
F3.4965623941227233
aF2.489860515951172
aF3.491200868944405
aa(lp125
F3.498030800127364
aF2.507459610672158
aF4.491218296067919
aa(lp126
F3.51474075883635
aF2.495966359044018
aF5.491067703978857
aa(lp127
F3.503553789159879
aF3.4931872456774955
aF0.4958358474638613
aa(lp128
F3.4933839891555167
aF3.5104981512530746
aF1.4958487532437919
aa(lp129
F3.5048597708952407
aF3.4934824499881754
aF2.49598085306669
aa(lp130
F3.5023038050895225
aF3.489841488700014
aF3.49628236811751
aa(lp131
F3.5037792362574445
aF3.507630986442061
aF4.496260891278669
aa(lp132
F3.4858581152455015
aF3.4958144177711787
aF5.495893859820184
aa(lp133
F3.5022121800846606
aF4.493328980350689
aF0.5032660574995533
aa(lp134
F3.511378127679636
aF4.510444665382457
aF1.5036507843064957
aa(lp135
F3.497945106389253
aF4.493426697797258
aF2.5037948882688594
aa(lp136
F3.482582827506459
aF4.489821103254321
aF3.5038994209639713
aa(lp137
F3.50734147001363
aF4.507779084304407
aF4.503391983265351
aa(lp138
F3.518308381931694
aF4.495593766965728
aF5.503177193628155
aa(lp139
F3.483363725574747
aF5.493369301636211
aF0.5070150642454102
aa(lp140
F3.493163002107152
aF5.51067222077407
aF1.5072053797474725
aa(lp141
F3.511939956514002
aF5.493397491484839
aF2.5072074604307795
aa(lp142
F3.5003386065451414
aF5.489971284384428
aF3.5069111697176174
aa(lp143
F3.5016593994060434
aF5.5079325141834685
aF4.506526587860551
aa(lp144
F3.498521311292616
aF5.4957158529191705
aF5.506585023682689
aa(lp145
F4.513275176901907
aF0.5041353820849239
aF0.4897334826095681
aa(lp146
F4.496566947503548
aF0.4989194998680914
aF1.48981257961854
aa(lp147
F4.491611149164621
aF0.5009029085729912
aF2.490155751288394
aa(lp148
F4.510600334531455
aF0.4967201363150474
aF3.4902382461563404
aa(lp149
F4.477663134620994
aF0.49468036473338983
aF4.4899229858813925
aa(lp150
F4.498334403154048
aF0.508559477943921
aF5.4895324834123
aa(lp151
F4.499796184421659
aF1.5041511061895714
aF0.5053238742737522
aa(lp152
F4.510328775253403
aF1.4989571868089158
aF1.5055459376233415
aa(lp153
F4.507698965354876
aF1.5011189275730403
aF2.5056578939546097
aa(lp154
F4.487999661279458
aF1.4965264467123711
aF3.5057364498020482
aa(lp155
F4.523798217862757
aF1.4941776388987202
aF4.505494235283788
aa(lp156
F4.489709762349696
aF1.5086864053775046
aF5.5052170801613896
aa(lp157
F4.500711875990703
aF2.504169465130456
aF0.5068539058567091
aa(lp158
F4.489319776077258
aF2.49890496024241
aF1.506991831638206
aa(lp159
F4.505874946207212
aF2.5013059123541663
aF2.5072247899936158
aa(lp160
F4.496720434212968
aF2.496751579489059
aF3.5073505780239564
aa(lp161
F4.4978906772225375
aF2.494180874447033
aF4.5074283693753
aa(lp162
F4.514676565494842
aF2.508916810702737
aF5.507007230251019
aa(lp163
F4.50405565931771
aF3.5040739333647064
aF0.5205956453480259
aa(lp164
F4.4936136187460995
aF3.499053800893278
aF1.5207465492491692
aa(lp165
F4.505037433373361
aF3.50116816435871
aF2.521019403869598
aa(lp166
F4.502716379968213
aF3.4970162970305743
aF3.5213352874889643
aa(lp167
F4.504027006319626
aF3.4941578047519974
aF4.521301063836378
aa(lp168
F4.486047067186056
aF3.5089812699916214
aF5.520816729858609
aa(lp169
F4.502491823685244
aF4.50410131006268
aF0.4985340839399623
aa(lp170
F4.511618691305758
aF4.49877737439633
aF1.498677975072198
aa(lp171
F4.497865505037406
aF4.500777132157855
aF2.498769236116998
aa(lp172
F4.4826529048994646
aF4.496849738783896
aF3.4987695470159625
aa(lp173
F4.507249528250867
aF4.49402440477871
aF4.498612770082091
aa(lp174
F4.518281106691209
aF4.508687719813954
aF5.49850620275112
aa(lp175
F4.48326969185684
aF5.504156537766749
aF0.5018078047320346
aa(lp176
F4.493188247658028
aF5.49876586517829
aF1.5019900555557408
aa(lp177
F4.511768274662965
aF5.500707423824881
aF2.501900879060739
aa(lp178
F4.500344327489254
aF5.496819808656488
aF3.501945537359079
aa(lp179
F4.501663685217088
aF5.494325623105365
aF4.5016993954519595
aa(lp180
F4.4983326721099886
aF5.508628732730898
aF5.501682405809779
aa(lp181
F5.5132996327438235
aF0.49634201865482164
aF0.498281329264904
aa(lp182
F5.496846485595197
aF0.5067591613454371
aF1.498474667136776
aa(lp183
F5.491941348969681
aF0.5060664395982725
aF2.498404137974377
aa(lp184
F5.5109378421123925
aF0.5049306416367456
aF3.4983987491270967
aa(lp185
F5.477763359891046
aF0.49395615394590814
aF4.4981402907310155
aa(lp186
F5.498657195104179
aF0.5009660618594227
aF5.498043874839449
aa(lp187
F5.4997490652847
aF1.4964534121276263
aF0.5169704108397912
aa(lp188
F5.510421734452448
aF1.5069618891435859
aF1.5168391006421895
aa(lp189
F5.507744239372618
aF1.5061979160783299
aF2.5172298114834377
aa(lp190
F5.4880608118525585
aF1.5048821169320468
aF3.5175383410993946
aa(lp191
F5.523802468336527
aF1.4934803225549125
aF4.517516787686875
aa(lp192
F5.4897208848449335
aF1.5012942061884582
aF5.517271059109104
aa(lp193
F5.500611551581088
aF2.4966739010366004
aF0.49361758230347713
aa(lp194
F5.489128851585187
aF2.5070127866101597
aF1.4935790344386501
aa(lp195
F5.50576514962623
aF2.5063159306034417
aF2.493504156943592
aa(lp196
F5.4966544103428
aF2.5048997599741174
aF3.493567964714465
aa(lp197
F5.497840014830942
aF2.4933426715170524
aF4.4937357345396505
aa(lp198
F5.514803487930748
aF2.5013059513826774
aF5.493687027204561
aa(lp199
F5.503765220974439
aF3.4969144505137844
aF0.469945420568249
aa(lp200
F5.493062342842065
aF3.5072430849048613
aF1.4697900197015916
aa(lp201
F5.504466327376859
aF3.5063210736538872
aF2.469667455790033
aa(lp202
F5.502256309577312
aF3.5049658086434556
aF3.4698222918271875
aa(lp203
F5.503638264275209
aF3.4935065240951086
aF4.47001895680207
aa(lp204
F5.4856032147521
aF3.501125828670744
aF5.469985738268928
aa(lp205
F5.502576670021214
aF4.496589649618496
aF0.50942287793897
aa(lp206
F5.511906733585759
aF4.506594037050779
aF1.5093548784526791
aa(lp207
F5.497809164963746
aF4.5058733852780195
aF2.5088748877957996
aa(lp208
F5.482927305260492
aF4.504586006087083
aF3.5086986699191036
aa(lp209
F5.507073706388643
aF4.4933995869100025
aF4.508693238899481
aa(lp210
F5.518229123667241
aF4.500486583817359
aF5.5090229510868465
aa(lp211
F5.483258232714248
aF5.496520044386997
aF0.49648815084047493
aa(lp212
F5.493533401301112
aF5.506551612918186
aF1.4964799910582502
aa(lp213
F5.511849102888411
aF5.505842312381494
aF2.4960481212706305
aa(lp214
F5.500214929805684
aF5.504574948627587
aF3.4958740699801525
aa(lp215
F5.501381062595364
aF5.493758053164771
aF4.496021339164784
aa(lp216
F5.498166130024648
aF5.500681633675359
aF5.496126435904058
aa.