(lp0
(lp1
F0.5191471985925945
aF0.48662895770395753
aF0.4813868557774211
aa(lp2
F0.49569356360037004
aF0.49392579213776394
aF1.4815855209386437
aa(lp3
F0.4878391381464262
aF0.4903889522134075
aF2.481951588516306
aa(lp4
F0.5178599218062903
aF0.5125430565226948
aF3.4817525092942
aa(lp5
F0.4685742947843289
aF0.5144483459322443
aF4.481169283400352
aa(lp6
F0.5001470121361961
aF0.4949175956844739
aF5.481089423716597
aa(lp7
F0.4982929531851454
aF1.4868980094883717
aF0.4834682394866404
aa(lp8
F0.5135191146632823
aF1.4941247700188278
aF1.4837587241058403
aa(lp9
F0.5098419093962294
aF1.4904043399156144
aF2.4841905476599475
aa(lp10
F0.48106533374503924
aF1.5123746025220728
aF3.484170549993217
aa(lp11
F0.5338762672153398
aF1.5133863167501505
aF4.483663743657173
aa(lp12
F0.48345177670502476
aF1.4954101895159662
aF5.483060661588219
aa(lp13
F0.49981945010356543
aF2.486797355367594
aF0.5135788172652627
aa(lp14
F0.4849776973590083
aF2.4937537121191853
aF1.513792495918307
aa(lp15
F0.5074098928578612
aF2.4901141863598735
aF2.5137743701321513
aa(lp16
F0.4959210617746056
aF2.5123714761791063
aF3.513574954789566
aa(lp17
F0.4939684301086636
aF2.5130914046427906
aF4.513689371328099
aa(lp18
F0.5212840825230739
aF2.4951231094862942
aF5.513467235450245
aa(lp19
F0.5061582218457156
aF3.4871017466098326
aF0.5261229953215824
aa(lp20
F0.49049795474776386
aF3.49424698675465
aF1.5260734016658382
aa(lp21
F0.5059881974413929
aF3.490330025624168
aF2.526082608293696
aa(lp22
F0.5037655378941318
aF3.5127929830890445
aF3.5260520431942237
aa(lp23
F0.5053492051981826
aF3.513644858231322
aF4.526390739207285
aa(lp24
F0.47845579919794334
aF3.495159751768966
aF5.5262497706354035
aa(lp25
F0.5018406772778011
aF4.4868328312973675
aF0.4874980597217833
aa(lp26
F0.5164830831335601
aF4.493747127761599
aF1.4875008350740782
aa(lp27
F0.4962653078040536
aF4.490109987275364
aF2.487507631517312
aa(lp28
F0.4774737298832736
aF4.512328691253489
aF3.487490163447735
aa(lp29
F0.508791563970197
aF4.5136280358634755
aF4.487477352217543
aa(lp30
F0.5245775240824512
aF4.494309703173906
aF5.487569592282201
aa(lp31
F0.47786815722062465
aF5.487031326929661
aF0.49555926456925586
aa(lp32
F0.4913483638619937
aF5.493765219730056
aF1.49554764568529
aa(lp33
F0.5168453821659634
aF5.490426251744766
aF2.4953262965787215
aa(lp34
F0.499928345889207
aF5.512430202890875
aF3.495122043531604
aa(lp35
F0.502967324114688
aF5.51425940216701
aF4.4954135213942585
aa(lp36
F0.4978111316845593
aF5.4945430857377175
aF5.495562779544505
aa(lp37
F1.5185570162473276
aF0.49942712203398015
aF0.5262211302923869
aa(lp38
F1.4950978877951804
aF0.5135451736755359
aF1.5263402155062116
aa(lp39
F1.4873380574916208
aF0.4983881197471052
aF2.526631327327451
aa(lp40
F1.5171408028729492
aF0.4923522298844013
aF3.526653146243647
aa(lp41
F1.4679271224737793
aF0.4967655365506271
aF4.526011974958727
aa(lp42
F1.499493680590906
aF0.5090116614049301
aF5.525972720521505
aa(lp43
F1.4983183890659395
aF1.4998202127396276
aF0.5041277811739878
aa(lp44
F1.5134849339647705
aF1.5137970273296575
aF1.5042970644182152
aa(lp45
F1.5098544143122405
aF1.4984818467708052
aF2.504515700983748
aa(lp46
F1.480954244225609
aF1.492398004853489
aF3.504694523026426
aa(lp47
F1.5339256033541457
aF1.4957758590121462
aF4.50417655509603
aa(lp48
F1.4835011656973167
aF1.5096798361674615
aF5.503744038839296
aa(lp49
F1.4997313180456782
aF2.500578073314356
aF0.49989283590250616
aa(lp50
F1.4849527263123303
aF2.5140498621279437
aF1.50005511521834
aa(lp51
F1.5074642722451923
aF2.499037940884829
aF2.4999944178658198
aa(lp52
F1.4957749876726978
aF2.4930314428275038
aF3.500028395333406
aa(lp53
F1.494035474155094
aF2.4962826923328674
aF4.5000896932766645
aa(lp54
F1.5212957657760897
aF2.510055111110468
aF5.499879122379954
aa(lp55
F1.5062492323347205
aF3.500871680394199
aF0.46482945116887653
aa(lp56
F1.4908456887830495
aF3.5143918885855463
aF1.4648563106931802
aa(lp57
F1.5063633535650311
aF3.4993654113341974
aF2.4647993333821963
aa(lp58
F1.5038823598250972
aF3.4933106671959173
aF3.4649360860252347
aa(lp59
F1.505631845664199
aF3.4969619201377142
aF4.465110304019005
aa(lp60
F1.4788015613020364
aF3.5098825411689307
aF5.46497411966954
aa(lp61
F1.5015301018671963
aF4.500308020084592
aF0.5236806527849966
aa(lp62
F1.51622425825201
aF4.513675205889712
aF1.5237643918262038
aa(lp63
F1.4961719498263806
aF4.498900969689729
aF2.5236954817725805
aa(lp64
F1.4771371810436615
aF4.492440949913283
aF3.523678207705836
aa(lp65
F1.5086757850915422
aF4.496654823536989
aF4.523442493390616
aa(lp66
F1.5245062952453143
aF4.508696399165532
aF5.523592259452745
aa(lp67
F1.4779276184651604
aF5.500215306020148
aF0.48180824323028365
aa(lp68
F1.491320463900046
aF5.513664448037353
aF1.4817768902633097
aa(lp69
F1.5169501022324807
aF5.498949793564353
aF2.4814657511538916
aa(lp70
F1.499896686368442
aF5.492433962548441
aF3.4814642776612703
aa(lp71
F1.502973736026615
aF5.497059568934574
aF4.481654665127978
aa(lp72
F1.497967399821119
aF5.508823668462515
aF5.481833330777797
aa(lp73
F2.518599906071678
aF0.5022836967900737
aF0.49561089057219126
aa(lp74
F2.4948458531423867
aF0.49187149611094094
aF1.495658048010753
aa(lp75
F2.4872652879461064
aF0.49832687850168933
aF2.496078253435641
aa(lp76
F2.5170061166026363
aF0.4976687103356472
aF3.4962845665061644
aa(lp77
F2.4678557547109983
aF0.5126636136992523
aF4.495713004240943
aa(lp78
F2.499243179524842
aF0.486984889714211
aF5.495490693609475
aa(lp79
F2.4985723068588053
aF1.5026645870863342
aF0.5013000441166473
aa(lp80
F2.513621325339435
aF1.492189143634668
aF1.5015469523114637
aa(lp81
F2.5100324782800723
aF1.4986387766672469
aF2.501887272287755
aa(lp82
F2.4811850712991905
aF1.497810454944185
aF3.5020470600146796
aa(lp83
F2.5341105984082053
aF1.511782304205163
aF4.501477085699098
aa(lp84
F2.483570064735071
aF1.4875684151688124
aF5.500893096893897
aa(lp85
F2.499849287459853
aF2.503172368637078
aF0.4841501797780187
aa(lp86
F2.48498750852059
aF2.4923824699951638
aF1.48425864873386
aa(lp87
F2.5075913290085095
aF2.4990309549117296
aF2.4842968095590843
aa(lp88
F2.4958610392364036
aF2.49837263467564
aF3.484499471002019
aa(lp89
F2.494119201626901
aF2.512103599278743
aF4.484634545803472
aa(lp90
F2.5211082858646567
aF2.487786112461733
aF5.484256221857783
aa(lp91
F2.505512361694008
aF3.5026026396861942
aF0.5395719736582226
aa(lp92
F2.4901115542613104
aF3.49190853592292
aF1.5395936970292823
aa(lp93
F2.5056903748642694
aF3.498267264633797
aF2.539653172316687
aa(lp94
F2.5031977017786193
aF3.4978068487467375
aF3.539901858105487
aa(lp95
F2.5049008594728943
aF3.5117369245136336
aF4.540110091988618
aa(lp96
F2.4779411999281415
aF3.486868411796151
aF5.539801369191434
aa(lp97
F2.5013078698369875
aF4.502179600212082
aF0.4847037673613535
aa(lp98
F2.5158347648291843
aF4.491210559572699
aF1.4848413834635341
aa(lp99
F2.496045943082075
aF4.497704363838138
aF2.4849757631429528
aa(lp100
F2.4768405065602512
aF4.496976465512642
aF3.485134813839496
aa(lp101
F2.508577814807661
aF4.51143472599882
aF4.4849012195767415
aa(lp102
F2.524130079236909
aF4.48586553986669
aF5.484802588960035
aa(lp103
F2.4778487344731563
aF5.502484350687622
aF0.5075740644046485
aa(lp104
F2.490981707035796
aF5.491422506297043
aF1.5076376034210193
aa(lp105
F2.516769215388313
aF5.498069539819884
aF2.5074380035369974
aa(lp106
F2.499775524350444
aF5.497206440622074
aF3.5074885504555287
aa(lp107
F2.5029321790625567
aF5.512220005185868
aF4.507622123741248
aa(lp108
F2.4977067408490763
aF5.486330644314585
aF5.507615983010682
aa(lp109
F3.5188517139375994
aF0.48981264119630175
aF0.5015839427028123
aa(lp110
F3.4949208232289357
aF0.5155842514123631
aF1.5014933288786858
aa(lp111
F3.4873802801261453
aF0.49123987465216923
aF2.5016727418896627
aa(lp112
F3.5171466271557823
aF0.48737058880446454
aF3.501843192545498
aa(lp113
F3.4682587574815584
aF0.5114722195752923
aF4.501155935228074
aa(lp114
F3.4995120136753726
aF0.49468005783824387
aF5.501250725877722
aa(lp115
F3.498709712238404
aF1.4898421895967873
aF0.5001011709581453
aa(lp116
F3.513736417752974
aF1.5155907429072013
aF1.5001236572502599
aa(lp117
F3.5102136342754946
aF1.4912211796241552
aF2.500206048520474
aa(lp118
F3.481344573013302
aF1.4870834676978886
aF3.5004535952391613
aa(lp119
F3.534358400495884
aF1.5102945759090858
aF4.499845392288882
aa(lp120
F3.483800545963587
aF1.4950181074421858
aF5.499532259390788
aa(lp121
F3.5000808895154205
aF2.490009021520321
aF0.4893166243232618
aa(lp122
F3.485132916335405
aF2.5152258074134615
aF1.4892675616661055
aa(lp123
F3.507772337797908
aF2.4913630958188264
aF2.489041551619392
aa(lp124
F3.4960707410766583
aF2.4870869511347546
aF3.489213068297316
aa(lp125
F3.494337868239125
aF2.5102574602240657
aF4.489239890209515
aa(lp126
F3.5212381783344
aF2.494817755595806
aF5.489169363816379
aa(lp127
F3.5060757860574046
aF3.490258459006581
aF0.4914407674647956
aa(lp128
F3.4905186587038037
aF3.515366379831029
aF1.491385121799629
aa(lp129
F3.5062076452331654
aF3.49152437962098
aF2.491365521963245
aa(lp130
F3.5037723193656882
aF3.4872464927943714
aF3.4916730451673472
aa(lp131
F3.5054786134375
aF3.5107212950374596
aF4.4916571465037824
aa(lp132
F3.478474881351626
aF3.494602383912062
aF5.491492391431105
aa(lp133
F3.5015245396532313
aF4.490442173855676
aF0.5052080836618281
aa(lp134
F3.5158687407389073
aF4.515289393307762
aF1.5053484470209506
aa(lp135
F3.496271479694136
aF4.491548627612056
aF2.5054021705602154
aa(lp136
F3.476885040953872
aF4.4871300434690555
aF3.505562746477244
aa(lp137
F3.508821347325173
aF4.511029151491958
aF4.505037360908656
aa(lp138
F3.5242341956124323
aF4.494151238823367
aF5.505056237271521
aa(lp139
F3.4779260839261985
aF5.49040953370298
aF0.5082838137834359
aa(lp140
F3.4909434073446586
aF5.51533627634726
aF1.5083660361508537
aa(lp141
F3.516783356956515
aF5.49148124560212
aF2.5080903838851247
aa(lp142
F3.499818454121558
aF5.487190065389867
aF3.5080837258601867
aa(lp143
F3.5032384573775226
aF5.511420860959728
aF4.5079403018917965
aa(lp144
F3.4977853208498937
aF5.494291858649958
aF5.508076315638651
aa(lp145
F4.518868179537679
aF0.5054137157296731
aF0.48619956635630857
aa(lp146
F4.495039043575686
aF0.49688620328364175
aF1.4862993254143586
aa(lp147
F4.4874028404732105
aF0.50158038880117
aF2.4866957788351756
aa(lp148
F4.517252434180979
aF0.49662793224942026
aF3.4868071618005305
aa(lp149
F4.4683601545843725
aF0.4926862706650431
aF4.486229141676464
aa(lp150
F4.499609945431174
aF0.5116922112892942
aF5.486066205978906
aa(lp151
F4.498743439441851
aF1.5054417037744596
aF0.5058348851700224
aa(lp152
F4.513890870332141
aF1.4968808556448199
aF1.506084870864057
aa(lp153
F4.5103641610124345
aF1.5016058350313755
aF2.5064537312986235
aa(lp154
F4.481493539049218
aF1.4962715156354212
aF3.5065941529339932
aa(lp155
F4.534374166150064
aF1.4915016938867167
aF4.50602568685784
aa(lp156
F4.483878169994216
aF1.5119602143966973
aF5.505411301581145
aa(lp157
F4.500058699639429
aF2.505657981681084
aF0.5082524539435277
aa(lp158
F4.485107533610206
aF2.4968466446347564
aF1.5083532076374133
aa(lp159
F4.507678780274759
aF2.501906609095004
aF2.5083748595191437
aa(lp160
F4.496069761099359
aF2.496629185115693
aF3.508506482073603
aa(lp161
F4.494161190260753
aF2.491568363619622
aF4.508644900181924
aa(lp162
F4.5211153180789445
aF2.51209369168203
aF5.508287393775393
aa(lp163
F4.5069850612755085
aF3.5057221355178787
aF0.5289854382692987
aa(lp164
F4.4913063819264165
aF3.4970279222921774
aF1.5291054866307217
aa(lp165
F4.506974968459869
aF3.501915132180218
aF2.5292953313579334
aa(lp166
F4.504675503565261
aF3.4968901200909897
aF3.529471595249148
aa(lp167
F4.506238746494842
aF3.491869959274318
aF4.529586061683318
aa(lp168
F4.479226703412522
aF3.511981137530684
aF5.529150878011914
aa(lp169
F4.501783483202651
aF4.50561832560112
aF0.49536965678648576
aa(lp170
F4.516135993278204
aF4.496637091081378
aF1.4955158797594459
aa(lp171
F4.496401431504639
aF4.501570107222406
aF2.4955779432592426
aa(lp172
F4.477115405154803
aF4.496511914970265
aF3.4956230151349073
aa(lp173
F4.508845231396912
aF4.491863312682955
aF4.4953743563750965
aa(lp174
F4.524252935667276
aF4.5113045799254365
aF5.4953686177120575
aa(lp175
F4.4778310565365995
aF5.505848010673306
aF0.5030433478005816
aa(lp176
F4.4910283452908475
aF5.496688969149788
aF1.5031645578100523
aa(lp177
F4.516742227006001
aF5.501665180359184
aF2.503091810460896
aa(lp178
F4.499794459951191
aF5.49658276175528
aF3.5030787678128
aa(lp179
F4.503183345659017
aF5.492466874871016
aF4.503146704949196
aa(lp180
F4.497631754617573
aF5.511452054100678
aF5.503070754270878
aa(lp181
F5.51896391296964
aF0.4951946890437247
aF0.4985883983809953
aa(lp182
F5.495391192161117
aF0.5093107736732081
aF1.4985965150710348
aa(lp183
F5.487641491376469
aF0.5074995988412602
aF2.4989253193370344
aa(lp184
F5.517530666734749
aF0.5059849613847601
aF3.4989834775842956
aa(lp185
F5.468613427466867
aF0.4916368495403401
aF4.498337066275315
aa(lp186
F5.499874444155237
aF0.5018308759023963
aF5.498353069929501
aa(lp187
F5.498780859090373
aF1.495357693145728
aF0.5231288789288098
aa(lp188
F5.514027657839408
aF1.5095030509777747
aF1.5231699322121464
aa(lp189
F5.510465495361329
aF1.507621356889181
aF2.5236014376379163
aa(lp190
F5.481546825456826
aF1.5058314095868532
aF3.523923849282885
aa(lp191
F5.534505818472949
aF1.4904807209221844
aF4.523411925820499
aa(lp192
F5.483939095731634
aF1.5022351920290027
aF5.522876097052996
aa(lp193
F5.500014968029744
aF2.4955917503512945
aF0.491425183214308
aa(lp194
F5.485152283928089
aF2.5093850941747857
aF1.4913682590281279
aa(lp195
F5.507678742453583
aF2.507734114368995
aF2.491264557971856
aa(lp196
F5.4960639595469365
aF2.5059384746146516
aF3.491388075510076
aa(lp197
F5.49421809426985
aF2.4903887144817323
aF4.4915399083551755
aa(lp198
F5.521243438467306
aF2.502137175899329
aF5.491442474537138
aa(lp199
F5.506426774412204
aF3.4958736089567077
aF0.4580775084299879
aa(lp200
F5.490653355119354
aF3.5096443353002633
aF1.4580008559749515
aa(lp201
F5.5062910533165415
aF3.5078595975731957
aF2.4579864174704165
aa(lp202
F5.503991368894911
aF3.5061843171497267
aF3.4581495970489664
aa(lp203
F5.505659798422193
aF3.4908514884421065
aF4.458307041829098
aa(lp204
F5.478596056555917
aF3.5019645836875872
aF5.458221725988052
aa(lp205
F5.501900416582259
aF4.495179941334731
aF0.515111702129494
aa(lp206
F5.5164221826810405
aF4.508607390990064
aF1.5151388725864614
aa(lp207
F5.49644528660139
aF4.507027061898836
aF2.515051551188943
aa(lp208
F5.477343600779674
aF4.505199838176954
aF3.5149889803924963
aa(lp209
F5.508942351052729
aF4.49039689276803
aF4.514697020578444
aa(lp210
F5.524389501785851
aF4.500674639120162
aF5.514976036371579
aa(lp211
F5.477803519789437
aF5.495395357683963
aF0.4948013180387442
aa(lp212
F5.491217260379886
aF5.508770018804301
aF1.494795694078654
aa(lp213
F5.516796121767596
aF5.507303250322241
aF2.4945629148611745
aa(lp214
F5.499794378167338
aF5.505484174259416
aF3.4945218536258342
aa(lp215
F5.503167895390946
aF5.491154074031427
aF4.494585877103993
aa(lp216
F5.497608159706829
aF5.501080742728062
aF5.49479391073361
aa.